target datalayout = "e-m:e-p270:32:32-p271:32:32-p272:64:64-i64:64-i128:128-f80:128-n8:16:32:64-S128"
target triple = "x86_64-unknown-linux-gnu"

%"union.hermes::hbc::BytecodeOptions" = type { %struct.anon }
%struct.anon = type { i8 }
%"class.llvh::ArrayRef" = type { ptr, i64 }
%"class.llvh::ArrayRef.2" = type { ptr, i64 }
%"class.llvh::ArrayRef.3" = type { ptr, i64 }
%"class.llvh::ArrayRef.4" = type { ptr, i64 }
%"class.llvh::ArrayRef.5" = type { ptr, i64 }
%"class.llvh::ArrayRef.6" = type { ptr, i64 }
%"class.hermes::hbc::BCProviderBase" = type { ptr, %"union.hermes::hbc::BytecodeOptions", i32, i32, i32, %"class.llvh::ArrayRef", %"class.llvh::ArrayRef.2", %"class.llvh::ArrayRef.3", %"class.llvh::ArrayRef.3", %"class.llvh::ArrayRef.3", %"class.llvh::ArrayRef.3", %"class.llvh::ArrayRef.4", %"class.llvh::ArrayRef.3", %"class.llvh::ArrayRef.5", %"class.llvh::ArrayRef.3", i32, %"class.llvh::ArrayRef.6", %"class.llvh::ArrayRef.6", %"class.llvh::ArrayRef.6", ptr, %"class.std::__cxx11::basic_string" }
%"class.std::__cxx11::basic_string" = type { %"struct.std::__cxx11::basic_string<char>::_Alloc_hider", i64, %union.anon }
%"struct.std::__cxx11::basic_string<char>::_Alloc_hider" = type { ptr }
%union.anon = type { i64, [8 x i8] }
%"class.hermes::hbc::BCProviderLazy" = type { %"class.hermes::hbc::BCProviderBase", ptr }

; Function Attrs: mustprogress nounwind uwtable
define linkonce_odr hidden void @_ZN4llvh8ArrayRefISt4pairIjjEEC2Ev(ptr noundef nonnull align 8 dereferenceable(16) %this) unnamed_addr #0 comdat align 2 {
entry:
  %this.addr = alloca ptr, align 8
  store ptr %this, ptr %this.addr, align 8
  %this1 = load ptr, ptr %this.addr, align 8
  %Data = getelementptr inbounds %"class.llvh::ArrayRef.6", ptr %this1, i32 0, i32 0
  store ptr null, ptr %Data, align 8
  %Length = getelementptr inbounds %"class.llvh::ArrayRef.6", ptr %this1, i32 0, i32 1
  store i64 0, ptr %Length, align 8
  ret void
}

; Function Attrs: mustprogress nounwind uwtable
define linkonce_odr hidden void @_ZN4llvh8ArrayRefIN6hermes16RegExpTableEntryEEC2Ev(ptr noundef nonnull align 8 dereferenceable(16) %this) unnamed_addr #0 comdat align 2 {
entry:
  %this.addr = alloca ptr, align 8
  store ptr %this, ptr %this.addr, align 8
  %this1 = load ptr, ptr %this.addr, align 8
  %Data = getelementptr inbounds %"class.llvh::ArrayRef.5", ptr %this1, i32 0, i32 0
  store ptr null, ptr %Data, align 8
  %Length = getelementptr inbounds %"class.llvh::ArrayRef.5", ptr %this1, i32 0, i32 1
  store i64 0, ptr %Length, align 8
  ret void
}

; Function Attrs: mustprogress nounwind uwtable
define linkonce_odr hidden void @_ZN4llvh8ArrayRefIN6hermes6bigint16BigIntTableEntryEEC2Ev(ptr noundef nonnull align 8 dereferenceable(16) %this) unnamed_addr #0 comdat align 2 {
entry:
  %this.addr = alloca ptr, align 8
  store ptr %this, ptr %this.addr, align 8
  %this1 = load ptr, ptr %this.addr, align 8
  %Data = getelementptr inbounds %"class.llvh::ArrayRef.4", ptr %this1, i32 0, i32 0
  store ptr null, ptr %Data, align 8
  %Length = getelementptr inbounds %"class.llvh::ArrayRef.4", ptr %this1, i32 0, i32 1
  store i64 0, ptr %Length, align 8
  ret void
}

; Function Attrs: mustprogress nounwind uwtable
define linkonce_odr hidden void @_ZN4llvh8ArrayRefIhEC2Ev(ptr noundef nonnull align 8 dereferenceable(16) %this) unnamed_addr #0 comdat align 2 {
entry:
  %this.addr = alloca ptr, align 8
  store ptr %this, ptr %this.addr, align 8
  %this1 = load ptr, ptr %this.addr, align 8
  %Data = getelementptr inbounds %"class.llvh::ArrayRef.3", ptr %this1, i32 0, i32 0
  store ptr null, ptr %Data, align 8
  %Length = getelementptr inbounds %"class.llvh::ArrayRef.3", ptr %this1, i32 0, i32 1
  store i64 0, ptr %Length, align 8
  ret void
}

; Function Attrs: mustprogress nounwind uwtable
define linkonce_odr hidden void @_ZN4llvh8ArrayRefIjEC2Ev(ptr noundef nonnull align 8 dereferenceable(16) %this) unnamed_addr #0 comdat align 2 {
entry:
  %this.addr = alloca ptr, align 8
  store ptr %this, ptr %this.addr, align 8
  %this1 = load ptr, ptr %this.addr, align 8
  %Data = getelementptr inbounds %"class.llvh::ArrayRef.2", ptr %this1, i32 0, i32 0
  store ptr null, ptr %Data, align 8
  %Length = getelementptr inbounds %"class.llvh::ArrayRef.2", ptr %this1, i32 0, i32 1
  store i64 0, ptr %Length, align 8
  ret void
}

; Function Attrs: mustprogress nounwind uwtable
define linkonce_odr hidden void @_ZN4llvh8ArrayRefIN6hermes10StringKind5EntryEEC2Ev(ptr noundef nonnull align 8 dereferenceable(16) %this) unnamed_addr #0 comdat align 2 {
entry:
  %this.addr = alloca ptr, align 8
  store ptr %this, ptr %this.addr, align 8
  %this1 = load ptr, ptr %this.addr, align 8
  %Data = getelementptr inbounds %"class.llvh::ArrayRef", ptr %this1, i32 0, i32 0
  store ptr null, ptr %Data, align 8
  %Length = getelementptr inbounds %"class.llvh::ArrayRef", ptr %this1, i32 0, i32 1
  store i64 0, ptr %Length, align 8
  ret void
}

; Function Attrs: mustprogress nounwind uwtable
define linkonce_odr hidden void @_ZN6hermes3hbc15BytecodeOptionsC2Ev(ptr noundef nonnull align 1 dereferenceable(1) %this) unnamed_addr #0 comdat align 2 {
entry:
  %this.addr = alloca ptr, align 8
  store ptr %this, ptr %this.addr, align 8
  %this1 = load ptr, ptr %this.addr, align 8
  store i8 0, ptr %this1, align 1
  ret void
}

; Function Attrs: mustprogress nounwind uwtable
define linkonce_odr hidden void @_ZN6hermes3hbc14BCProviderBaseC2Ev(ptr noundef nonnull align 8 dereferenceable(280) %this) unnamed_addr #0 comdat align 2 {
entry:
  %this.addr = alloca ptr, align 8
  store ptr %this, ptr %this.addr, align 8
  %this1 = load ptr, ptr %this.addr, align 8
  store ptr getelementptr inbounds ({ [22 x ptr] }, ptr @_ZTVN6hermes3hbc14BCProviderBaseE, i32 0, i32 0, i32 2), ptr %this1, align 8
  %options_ = getelementptr inbounds %"class.hermes::hbc::BCProviderBase", ptr %this1, i32 0, i32 1
  call void @_ZN6hermes3hbc15BytecodeOptionsC2Ev(ptr noundef nonnull align 1 dereferenceable(1) %options_)
  %functionCount_ = getelementptr inbounds %"class.hermes::hbc::BCProviderBase", ptr %this1, i32 0, i32 2
  store i32 0, ptr %functionCount_, align 4
  %globalFunctionIndex_ = getelementptr inbounds %"class.hermes::hbc::BCProviderBase", ptr %this1, i32 0, i32 3
  store i32 0, ptr %globalFunctionIndex_, align 8
  %stringCount_ = getelementptr inbounds %"class.hermes::hbc::BCProviderBase", ptr %this1, i32 0, i32 4
  store i32 0, ptr %stringCount_, align 4
  %stringKinds_ = getelementptr inbounds %"class.hermes::hbc::BCProviderBase", ptr %this1, i32 0, i32 5
  call void @llvm.memset.p0.i64(ptr align 8 %stringKinds_, i8 0, i64 16, i1 false)
  call void @_ZN4llvh8ArrayRefIN6hermes10StringKind5EntryEEC2Ev(ptr noundef nonnull align 8 dereferenceable(16) %stringKinds_) #10
  %identifierHashes_ = getelementptr inbounds %"class.hermes::hbc::BCProviderBase", ptr %this1, i32 0, i32 6
  call void @llvm.memset.p0.i64(ptr align 8 %identifierHashes_, i8 0, i64 16, i1 false)
  call void @_ZN4llvh8ArrayRefIjEC2Ev(ptr noundef nonnull align 8 dereferenceable(16) %identifierHashes_) #10
  %stringStorage_ = getelementptr inbounds %"class.hermes::hbc::BCProviderBase", ptr %this1, i32 0, i32 7
  call void @llvm.memset.p0.i64(ptr align 8 %stringStorage_, i8 0, i64 16, i1 false)
  call void @_ZN4llvh8ArrayRefIhEC2Ev(ptr noundef nonnull align 8 dereferenceable(16) %stringStorage_) #10
  %arrayBuffer_ = getelementptr inbounds %"class.hermes::hbc::BCProviderBase", ptr %this1, i32 0, i32 8
  call void @llvm.memset.p0.i64(ptr align 8 %arrayBuffer_, i8 0, i64 16, i1 false)
  call void @_ZN4llvh8ArrayRefIhEC2Ev(ptr noundef nonnull align 8 dereferenceable(16) %arrayBuffer_) #10
  %objKeyBuffer_ = getelementptr inbounds %"class.hermes::hbc::BCProviderBase", ptr %this1, i32 0, i32 9
  call void @llvm.memset.p0.i64(ptr align 8 %objKeyBuffer_, i8 0, i64 16, i1 false)
  call void @_ZN4llvh8ArrayRefIhEC2Ev(ptr noundef nonnull align 8 dereferenceable(16) %objKeyBuffer_) #10
  %objValueBuffer_ = getelementptr inbounds %"class.hermes::hbc::BCProviderBase", ptr %this1, i32 0, i32 10
  call void @llvm.memset.p0.i64(ptr align 8 %objValueBuffer_, i8 0, i64 16, i1 false)
  call void @_ZN4llvh8ArrayRefIhEC2Ev(ptr noundef nonnull align 8 dereferenceable(16) %objValueBuffer_) #10
  %bigIntTable_ = getelementptr inbounds %"class.hermes::hbc::BCProviderBase", ptr %this1, i32 0, i32 11
  call void @llvm.memset.p0.i64(ptr align 8 %bigIntTable_, i8 0, i64 16, i1 false)
  call void @_ZN4llvh8ArrayRefIN6hermes6bigint16BigIntTableEntryEEC2Ev(ptr noundef nonnull align 8 dereferenceable(16) %bigIntTable_) #10
  %bigIntStorage_ = getelementptr inbounds %"class.hermes::hbc::BCProviderBase", ptr %this1, i32 0, i32 12
  call void @llvm.memset.p0.i64(ptr align 8 %bigIntStorage_, i8 0, i64 16, i1 false)
  call void @_ZN4llvh8ArrayRefIhEC2Ev(ptr noundef nonnull align 8 dereferenceable(16) %bigIntStorage_) #10
  %regExpTable_ = getelementptr inbounds %"class.hermes::hbc::BCProviderBase", ptr %this1, i32 0, i32 13
  call void @llvm.memset.p0.i64(ptr align 8 %regExpTable_, i8 0, i64 16, i1 false)
  call void @_ZN4llvh8ArrayRefIN6hermes16RegExpTableEntryEEC2Ev(ptr noundef nonnull align 8 dereferenceable(16) %regExpTable_) #10
  %regExpStorage_ = getelementptr inbounds %"class.hermes::hbc::BCProviderBase", ptr %this1, i32 0, i32 14
  call void @llvm.memset.p0.i64(ptr align 8 %regExpStorage_, i8 0, i64 16, i1 false)
  call void @_ZN4llvh8ArrayRefIhEC2Ev(ptr noundef nonnull align 8 dereferenceable(16) %regExpStorage_) #10
  %cjsModuleTable_ = getelementptr inbounds %"class.hermes::hbc::BCProviderBase", ptr %this1, i32 0, i32 16
  call void @llvm.memset.p0.i64(ptr align 8 %cjsModuleTable_, i8 0, i64 16, i1 false)
  call void @_ZN4llvh8ArrayRefISt4pairIjjEEC2Ev(ptr noundef nonnull align 8 dereferenceable(16) %cjsModuleTable_) #10
  %cjsModuleTableStatic_ = getelementptr inbounds %"class.hermes::hbc::BCProviderBase", ptr %this1, i32 0, i32 17
  call void @llvm.memset.p0.i64(ptr align 8 %cjsModuleTableStatic_, i8 0, i64 16, i1 false)
  call void @_ZN4llvh8ArrayRefISt4pairIjjEEC2Ev(ptr noundef nonnull align 8 dereferenceable(16) %cjsModuleTableStatic_) #10
  %functionSourceTable_ = getelementptr inbounds %"class.hermes::hbc::BCProviderBase", ptr %this1, i32 0, i32 18
  call void @llvm.memset.p0.i64(ptr align 8 %functionSourceTable_, i8 0, i64 16, i1 false)
  call void @_ZN4llvh8ArrayRefISt4pairIjjEEC2Ev(ptr noundef nonnull align 8 dereferenceable(16) %functionSourceTable_) #10
  %debugInfo_ = getelementptr inbounds %"class.hermes::hbc::BCProviderBase", ptr %this1, i32 0, i32 19
  store ptr null, ptr %debugInfo_, align 8
  %errstr_ = getelementptr inbounds %"class.hermes::hbc::BCProviderBase", ptr %this1, i32 0, i32 20
  call void @_ZNSt7__cxx1112basic_stringIcSt11char_traitsIcESaIcEEC1Ev(ptr noundef nonnull align 8 dereferenceable(32) %errstr_) #10
  ret void
}

; Function Attrs: mustprogress nounwind uwtable
define hidden void @_ZN6hermes3hbc14BCProviderLazyC2EPNS0_16BytecodeFunctionE(ptr noundef nonnull align 8 dereferenceable(288) %this, ptr noundef %bytecodeFunction) unnamed_addr #0 align 2 {
entry:
  %this.addr = alloca ptr, align 8
  %bytecodeFunction.addr = alloca ptr, align 8
  store ptr %this, ptr %this.addr, align 8
  store ptr %bytecodeFunction, ptr %bytecodeFunction.addr, align 8
  %this1 = load ptr, ptr %this.addr, align 8
  call void @_ZN6hermes3hbc14BCProviderBaseC2Ev(ptr noundef nonnull align 8 dereferenceable(280) %this1)
  store ptr getelementptr inbounds ({ [22 x ptr] }, ptr @_ZTVN6hermes3hbc14BCProviderLazyE, i32 0, i32 0, i32 2), ptr %this1, align 8
  %bytecodeFunction_ = getelementptr inbounds %"class.hermes::hbc::BCProviderLazy", ptr %this1, i32 0, i32 1
  %0 = load ptr, ptr %bytecodeFunction.addr, align 8
  store ptr %0, ptr %bytecodeFunction_, align 8
  %functionCount_ = getelementptr inbounds %"class.hermes::hbc::BCProviderBase", ptr %this1, i32 0, i32 2
  store i32 1, ptr %functionCount_, align 4
  ret void
}