; Function Attrs: mustprogress nounwind uwtable
define hidden void @_ZN6hermes3hbc14BCProviderLazyC2EPNS0_16BytecodeFunctionE(ptr noundef nonnull align 8 dereferenceable(288) %this, ptr noundef %bytecodeFunction) unnamed_addr #0 align 2 {
entry:
  store ptr getelementptr inbounds ({ [22 x ptr] }, ptr @_ZTVN6hermes3hbc14BCProviderBaseE, i64 0, i32 0, i64 2), ptr %this, align 8
  %options_.i = getelementptr inbounds i8, ptr %this, i64 8
  store i8 0, ptr %options_.i, align 8
  %functionCount_.i = getelementptr inbounds i8, ptr %this, i64 12
  %cjsModuleTable_.i = getelementptr inbounds i8, ptr %this, i64 192
  %errstr_.i = getelementptr inbounds i8, ptr %this, i64 248
  tail call void @llvm.memset.p0.i64(ptr noundef nonnull align 4 dereferenceable(172) %functionCount_.i, i8 0, i64 172, i1 false)
  tail call void @llvm.memset.p0.i64(ptr noundef nonnull align 8 dereferenceable(56) %cjsModuleTable_.i, i8 0, i64 56, i1 false)
  tail call void @_ZNSt7__cxx1112basic_stringIcSt11char_traitsIcESaIcEEC1Ev(ptr noundef nonnull align 8 dereferenceable(32) %errstr_.i) #12
  store ptr getelementptr inbounds ({ [22 x ptr] }, ptr @_ZTVN6hermes3hbc14BCProviderLazyE, i64 0, i32 0, i64 2), ptr %this, align 8
  %bytecodeFunction_ = getelementptr inbounds i8, ptr %this, i64 280
  store ptr %bytecodeFunction, ptr %bytecodeFunction_, align 8
  store i32 1, ptr %functionCount_.i, align 4
  ret void
}